; Function Attrs: nounwind uwtable
define ptr @l___private_Lean_Meta_Tactic_Grind_ForallProp_0__Lean_Meta_Grind_isEqTrueHyp_x3f___lambda__1___boxed(ptr noundef %0) #0 {
  %2 = ptrtoint ptr %0 to i64
  %3 = and i64 %2, 1
  %.not.i.i = icmp eq i64 %3, 0
  br i1 %.not.i.i, label %7, label %4

4:                                                ; preds = %1
  %5 = lshr i64 %2, 1
  %6 = trunc i64 %5 to i32
  br label %lean_obj_tag.exit.i

7:                                                ; preds = %1
  %8 = getelementptr i8, ptr %0, i64 4
  %.val.i.i = load i32, ptr %8, align 4
  %9 = lshr i32 %.val.i.i, 24
  br label %lean_obj_tag.exit.i

lean_obj_tag.exit.i:                              ; preds = %7, %4
  %.0.i.i = phi i32 [ %6, %4 ], [ %9, %7 ]
  %10 = icmp eq i32 %.0.i.i, 1
  br i1 %10, label %11, label %l___private_Lean_Meta_Tactic_Grind_ForallProp_0__Lean_Meta_Grind_isEqTrueHyp_x3f___lambda__1.exit

11:                                               ; preds = %lean_obj_tag.exit.i
  %12 = getelementptr inbounds nuw i8, ptr %0, i64 8
  %13 = load ptr, ptr %12, align 8, !tbaa !10
  %14 = ptrtoint ptr %13 to i64
  %15 = and i64 %14, 1
  %.not.i3 = icmp eq i64 %15, 0
  br i1 %.not.i3, label %16, label %lean_inc.exit.i

16:                                               ; preds = %11
  %.val.i8.i = load i32, ptr %13, align 4, !tbaa !4
  %17 = icmp sgt i32 %.val.i8.i, 0
  br i1 %17, label %18, label %20, !prof !9

18:                                               ; preds = %16
  %19 = add nuw i32 %.val.i8.i, 1
  store i32 %19, ptr %13, align 4, !tbaa !4
  br label %lean_inc.exit.i

20:                                               ; preds = %16
  %.not.i9.i = icmp eq i32 %.val.i8.i, 0
  br i1 %.not.i9.i, label %lean_inc.exit.i, label %21

21:                                               ; preds = %20
  tail call void @lean_inc_ref_cold(ptr noundef nonnull %13) #5
  br label %lean_inc.exit.i

lean_inc.exit.i:                                  ; preds = %21, %20, %18, %11
  tail call void @lean_inc_heartbeat() #5
  %22 = tail call noalias ptr @mi_malloc_small(i64 noundef 16) #5
  %23 = icmp eq ptr %22, null
  br i1 %23, label %24, label %lean_alloc_ctor.exit.i

24:                                               ; preds = %lean_inc.exit.i
  tail call void @lean_internal_panic_out_of_memory() #6
  unreachable

lean_alloc_ctor.exit.i:                           ; preds = %lean_inc.exit.i
  %25 = getelementptr inbounds nuw i8, ptr %22, i64 4
  store i32 1, ptr %22, align 4, !tbaa !4
  store i32 16842768, ptr %25, align 4
  %26 = getelementptr inbounds nuw i8, ptr %22, i64 8
  store ptr %13, ptr %26, align 8, !tbaa !10
  br label %l___private_Lean_Meta_Tactic_Grind_ForallProp_0__Lean_Meta_Grind_isEqTrueHyp_x3f___lambda__1.exit

l___private_Lean_Meta_Tactic_Grind_ForallProp_0__Lean_Meta_Grind_isEqTrueHyp_x3f___lambda__1.exit: ; preds = %lean_obj_tag.exit.i, %lean_alloc_ctor.exit.i
  %.0.i = phi ptr [ %22, %lean_alloc_ctor.exit.i ], [ inttoptr (i64 1 to ptr), %lean_obj_tag.exit.i ]
  br i1 %.not.i.i, label %27, label %lean_dec.exit

27:                                               ; preds = %l___private_Lean_Meta_Tactic_Grind_ForallProp_0__Lean_Meta_Grind_isEqTrueHyp_x3f___lambda__1.exit
  %28 = load i32, ptr %0, align 4, !tbaa !4
  %29 = icmp sgt i32 %28, 1
  br i1 %29, label %30, label %32, !prof !9

30:                                               ; preds = %27
  %31 = add nsw i32 %28, -1
  store i32 %31, ptr %0, align 4, !tbaa !4
  br label %lean_dec.exit

32:                                               ; preds = %27
  %.not.i = icmp eq i32 %28, 0
  br i1 %.not.i, label %lean_dec.exit, label %33

33:                                               ; preds = %32
  tail call void @lean_dec_ref_cold(ptr noundef nonnull %0) #5
  br label %lean_dec.exit

lean_dec.exit:                                    ; preds = %33, %32, %30, %l___private_Lean_Meta_Tactic_Grind_ForallProp_0__Lean_Meta_Grind_isEqTrueHyp_x3f___lambda__1.exit
  ret ptr %.0.i
}